target datalayout = "e-m:e-p270:32:32-p271:32:32-p272:64:64-i64:64-i128:128-f80:128-n8:16:32:64-S128"
target triple = "x86_64-pc-linux-gnu"

%struct.gres_state = type { i32, i32, ptr, ptr, i32 }
%struct.gres_job_state = type { i32, ptr, i16, i16, i64, i64, i64, i64, i64, i16, i16, i64, i32, ptr, ptr, ptr, ptr, i32, i64, i32, ptr, ptr, ptr, ptr, ptr, ptr }
%struct.gres_node_state = type { ptr, i64, i64, i8, i8, i64, ptr, i64, ptr, i16, i32, ptr, ptr, ptr, ptr, ptr, ptr, ptr, ptr, i16, ptr, ptr, ptr, ptr }
%struct.validate_job_gres_cnt_t = type { i32, ptr, i32, ptr }

@gpu_plugin_id = internal global i32 -2, align 4
@.str.284 = private unnamed_addr constant [57 x i8] c"%s: Killing job %u: gres/%s type %s not found on node %s\00", align 1
@__func__._find_invalid_job_gres_on_node = private unnamed_addr constant [31 x i8] c"_find_invalid_job_gres_on_node\00", align 1
@.str.285 = private unnamed_addr constant [65 x i8] c"%s: Killing job %u: gres/%s count mismatch on node %s (%d != %d)\00", align 1

; Function Attrs: nounwind uwtable
define dso_local zeroext i1 @gres_id_shared(i32 noundef %0) #0 {
  %2 = alloca i1, align 1
  %3 = alloca i32, align 4
  store i32 %0, ptr %3, align 4
  %4 = load i32, ptr %3, align 4
  %5 = zext i32 %4 to i64
  %6 = and i64 %5, 512
  %7 = icmp ne i64 %6, 0
  br i1 %7, label %8, label %9

8:                                                ; preds = %1
  store i1 true, ptr %2, align 1
  br label %10

9:                                                ; preds = %1
  store i1 false, ptr %2, align 1
  br label %10

10:                                               ; preds = %9, %8
  %11 = load i1, ptr %2, align 1
  ret i1 %11
}

; Function Attrs: nounwind uwtable
define internal i32 @_find_invalid_job_gres_on_node(ptr noundef %0, ptr noundef %1) #0 {
  %3 = alloca i32, align 4
  %4 = alloca ptr, align 8
  %5 = alloca ptr, align 8
  %6 = alloca ptr, align 8
  %7 = alloca ptr, align 8
  %8 = alloca ptr, align 8
  %9 = alloca ptr, align 8
  %10 = alloca i32, align 4
  %11 = alloca i32, align 4
  %12 = alloca i32, align 4
  %13 = alloca i32, align 4
  %14 = alloca ptr, align 8
  %15 = alloca i8, align 1
  %16 = alloca ptr, align 8
  %17 = alloca i32, align 4
  store ptr %0, ptr %4, align 8
  store ptr %1, ptr %5, align 8
  call void @llvm.lifetime.start.p0(i64 8, ptr %6) #11
  %18 = load ptr, ptr %4, align 8
  store ptr %18, ptr %6, align 8
  call void @llvm.lifetime.start.p0(i64 8, ptr %7) #11
  %19 = load ptr, ptr %6, align 8
  %20 = getelementptr inbounds nuw %struct.gres_state, ptr %19, i32 0, i32 2
  %21 = load ptr, ptr %20, align 8
  store ptr %21, ptr %7, align 8
  call void @llvm.lifetime.start.p0(i64 8, ptr %8) #11
  %22 = load ptr, ptr %5, align 8
  store ptr %22, ptr %8, align 8
  call void @llvm.lifetime.start.p0(i64 8, ptr %9) #11
  call void @llvm.lifetime.start.p0(i64 4, ptr %10) #11
  call void @llvm.lifetime.start.p0(i64 4, ptr %11) #11
  call void @llvm.lifetime.start.p0(i64 4, ptr %12) #11
  store i32 0, ptr %12, align 4
  %23 = load ptr, ptr %7, align 8
  %24 = icmp ne ptr %23, null
  br i1 %24, label %25, label %49

25:                                               ; preds = %2
  %26 = load ptr, ptr %7, align 8
  %27 = getelementptr inbounds nuw %struct.gres_job_state, ptr %26, i32 0, i32 20
  %28 = load ptr, ptr %27, align 8
  %29 = icmp ne ptr %28, null
  br i1 %29, label %30, label %49

30:                                               ; preds = %25
  %31 = load ptr, ptr %7, align 8
  %32 = getelementptr inbounds nuw %struct.gres_job_state, ptr %31, i32 0, i32 19
  %33 = load i32, ptr %32, align 8
  %34 = load ptr, ptr %8, align 8
  %35 = getelementptr inbounds nuw %struct.validate_job_gres_cnt_t, ptr %34, i32 0, i32 2
  %36 = load i32, ptr %35, align 8
  %37 = icmp ule i32 %33, %36
  br i1 %37, label %49, label %38

38:                                               ; preds = %30
  %39 = load ptr, ptr %7, align 8
  %40 = getelementptr inbounds nuw %struct.gres_job_state, ptr %39, i32 0, i32 20
  %41 = load ptr, ptr %40, align 8
  %42 = load ptr, ptr %8, align 8
  %43 = getelementptr inbounds nuw %struct.validate_job_gres_cnt_t, ptr %42, i32 0, i32 2
  %44 = load i32, ptr %43, align 8
  %45 = sext i32 %44 to i64
  %46 = getelementptr inbounds ptr, ptr %41, i64 %45
  %47 = load ptr, ptr %46, align 8
  %48 = icmp ne ptr %47, null
  br i1 %48, label %50, label %49

49:                                               ; preds = %38, %30, %25, %2
  store i32 0, ptr %3, align 4
  store i32 1, ptr %13, align 4
  br label %163

50:                                               ; preds = %38
  %51 = load ptr, ptr %7, align 8
  %52 = getelementptr inbounds nuw %struct.gres_job_state, ptr %51, i32 0, i32 20
  %53 = load ptr, ptr %52, align 8
  %54 = load ptr, ptr %8, align 8
  %55 = getelementptr inbounds nuw %struct.validate_job_gres_cnt_t, ptr %54, i32 0, i32 2
  %56 = load i32, ptr %55, align 8
  %57 = sext i32 %56 to i64
  %58 = getelementptr inbounds ptr, ptr %53, i64 %57
  %59 = load ptr, ptr %58, align 8
  %60 = call i64 @bit_size(ptr noundef %59)
  %61 = trunc i64 %60 to i32
  store i32 %61, ptr %11, align 4
  %62 = load ptr, ptr %6, align 8
  %63 = getelementptr inbounds nuw %struct.gres_state, ptr %62, i32 0, i32 0
  %64 = load i32, ptr %63, align 8
  %65 = call zeroext i1 @gres_id_shared(i32 noundef %64)
  br i1 %65, label %66, label %68

66:                                               ; preds = %50
  %67 = load i32, ptr @gpu_plugin_id, align 4
  store i32 %67, ptr %10, align 4
  br label %72

68:                                               ; preds = %50
  %69 = load ptr, ptr %6, align 8
  %70 = getelementptr inbounds nuw %struct.gres_state, ptr %69, i32 0, i32 1
  %71 = load i32, ptr %70, align 4
  store i32 %71, ptr %10, align 4
  br label %72

72:                                               ; preds = %68, %66
  %73 = load ptr, ptr %8, align 8
  %74 = getelementptr inbounds nuw %struct.validate_job_gres_cnt_t, ptr %73, i32 0, i32 1
  %75 = load ptr, ptr %74, align 8
  %76 = call ptr @list_find_first(ptr noundef %75, ptr noundef @gres_find_id, ptr noundef %10)
  store ptr %76, ptr %9, align 8
  %77 = icmp ne ptr %76, null
  br i1 %77, label %78, label %145

78:                                               ; preds = %72
  call void @llvm.lifetime.start.p0(i64 8, ptr %14) #11
  %79 = load ptr, ptr %9, align 8
  %80 = getelementptr inbounds nuw %struct.gres_state, ptr %79, i32 0, i32 2
  %81 = load ptr, ptr %80, align 8
  store ptr %81, ptr %14, align 8
  %82 = load ptr, ptr %14, align 8
  %83 = getelementptr inbounds nuw %struct.gres_node_state, ptr %82, i32 0, i32 2
  %84 = load i64, ptr %83, align 8
  %85 = trunc i64 %84 to i32
  store i32 %85, ptr %12, align 4
  %86 = load ptr, ptr %7, align 8
  %87 = getelementptr inbounds nuw %struct.gres_job_state, ptr %86, i32 0, i32 0
  %88 = load i32, ptr %87, align 8
  %89 = icmp ne i32 %88, 0
  br i1 %89, label %90, label %141

90:                                               ; preds = %78
  call void @llvm.lifetime.start.p0(i64 1, ptr %15) #11
  store i8 0, ptr %15, align 1
  call void @llvm.lifetime.start.p0(i64 8, ptr %16) #11
  %91 = load ptr, ptr %9, align 8
  %92 = getelementptr inbounds nuw %struct.gres_state, ptr %91, i32 0, i32 2
  %93 = load ptr, ptr %92, align 8
  store ptr %93, ptr %16, align 8
  call void @llvm.lifetime.start.p0(i64 4, ptr %17) #11
  store i32 0, ptr %17, align 4
  br label %94

94:                                               ; preds = %116, %90
  %95 = load i32, ptr %17, align 4
  %96 = load ptr, ptr %16, align 8
  %97 = getelementptr inbounds nuw %struct.gres_node_state, ptr %96, i32 0, i32 19
  %98 = load i16, ptr %97, align 8
  %99 = zext i16 %98 to i32
  %100 = icmp slt i32 %95, %99
  br i1 %100, label %102, label %101

101:                                              ; preds = %94
  store i32 2, ptr %13, align 4
  br label %119

102:                                              ; preds = %94
  %103 = load ptr, ptr %16, align 8
  %104 = getelementptr inbounds nuw %struct.gres_node_state, ptr %103, i32 0, i32 22
  %105 = load ptr, ptr %104, align 8
  %106 = load i32, ptr %17, align 4
  %107 = sext i32 %106 to i64
  %108 = getelementptr inbounds i32, ptr %105, i64 %107
  %109 = load i32, ptr %108, align 4
  %110 = load ptr, ptr %7, align 8
  %111 = getelementptr inbounds nuw %struct.gres_job_state, ptr %110, i32 0, i32 0
  %112 = load i32, ptr %111, align 8
  %113 = icmp eq i32 %109, %112
  br i1 %113, label %114, label %115

114:                                              ; preds = %102
  store i8 1, ptr %15, align 1
  store i32 2, ptr %13, align 4
  br label %119

115:                                              ; preds = %102
  br label %116

116:                                              ; preds = %115
  %117 = load i32, ptr %17, align 4
  %118 = add nsw i32 %117, 1
  store i32 %118, ptr %17, align 4
  br label %94, !llvm.loop !90

119:                                              ; preds = %114, %101
  call void @llvm.lifetime.end.p0(i64 4, ptr %17) #11
  br label %120

120:                                              ; preds = %119
  %121 = load i8, ptr %15, align 1, !range !8, !noundef !9
  %122 = trunc i8 %121 to i1
  br i1 %122, label %137, label %123

123:                                              ; preds = %120
  %124 = load ptr, ptr %8, align 8
  %125 = getelementptr inbounds nuw %struct.validate_job_gres_cnt_t, ptr %124, i32 0, i32 0
  %126 = load i32, ptr %125, align 8
  %127 = load ptr, ptr %6, align 8
  %128 = getelementptr inbounds nuw %struct.gres_state, ptr %127, i32 0, i32 3
  %129 = load ptr, ptr %128, align 8
  %130 = load ptr, ptr %7, align 8
  %131 = getelementptr inbounds nuw %struct.gres_job_state, ptr %130, i32 0, i32 1
  %132 = load ptr, ptr %131, align 8
  %133 = load ptr, ptr %8, align 8
  %134 = getelementptr inbounds nuw %struct.validate_job_gres_cnt_t, ptr %133, i32 0, i32 3
  %135 = load ptr, ptr %134, align 8
  %136 = call i32 (ptr, ...) @error(ptr noundef @.str.284, ptr noundef @__func__._find_invalid_job_gres_on_node, i32 noundef %126, ptr noundef %129, ptr noundef %132, ptr noundef %135)
  store i32 1, ptr %3, align 4
  store i32 1, ptr %13, align 4
  br label %138

137:                                              ; preds = %120
  store i32 0, ptr %13, align 4
  br label %138

138:                                              ; preds = %137, %123
  call void @llvm.lifetime.end.p0(i64 8, ptr %16) #11
  call void @llvm.lifetime.end.p0(i64 1, ptr %15) #11
  %139 = load i32, ptr %13, align 4
  switch i32 %139, label %142 [
    i32 0, label %140
  ]

140:                                              ; preds = %138
  br label %141

141:                                              ; preds = %140, %78
  store i32 0, ptr %13, align 4
  br label %142

142:                                              ; preds = %141, %138
  call void @llvm.lifetime.end.p0(i64 8, ptr %14) #11
  %143 = load i32, ptr %13, align 4
  switch i32 %143, label %163 [
    i32 0, label %144
  ]

144:                                              ; preds = %142
  br label %145

145:                                              ; preds = %144, %72
  %146 = load i32, ptr %11, align 4
  %147 = load i32, ptr %12, align 4
  %148 = icmp ne i32 %146, %147
  br i1 %148, label %149, label %162

149:                                              ; preds = %145
  %150 = load ptr, ptr %8, align 8
  %151 = getelementptr inbounds nuw %struct.validate_job_gres_cnt_t, ptr %150, i32 0, i32 0
  %152 = load i32, ptr %151, align 8
  %153 = load ptr, ptr %6, align 8
  %154 = getelementptr inbounds nuw %struct.gres_state, ptr %153, i32 0, i32 3
  %155 = load ptr, ptr %154, align 8
  %156 = load ptr, ptr %8, align 8
  %157 = getelementptr inbounds nuw %struct.validate_job_gres_cnt_t, ptr %156, i32 0, i32 3
  %158 = load ptr, ptr %157, align 8
  %159 = load i32, ptr %11, align 4
  %160 = load i32, ptr %12, align 4
  %161 = call i32 (ptr, ...) @error(ptr noundef @.str.285, ptr noundef @__func__._find_invalid_job_gres_on_node, i32 noundef %152, ptr noundef %155, ptr noundef %158, i32 noundef %159, i32 noundef %160)
  store i32 1, ptr %3, align 4
  store i32 1, ptr %13, align 4
  br label %163

162:                                              ; preds = %145
  store i32 0, ptr %3, align 4
  store i32 1, ptr %13, align 4
  br label %163

163:                                              ; preds = %162, %149, %142, %49
  call void @llvm.lifetime.end.p0(i64 4, ptr %12) #11
  call void @llvm.lifetime.end.p0(i64 4, ptr %11) #11
  call void @llvm.lifetime.end.p0(i64 4, ptr %10) #11
  call void @llvm.lifetime.end.p0(i64 8, ptr %9) #11
  call void @llvm.lifetime.end.p0(i64 8, ptr %8) #11
  call void @llvm.lifetime.end.p0(i64 8, ptr %7) #11
  call void @llvm.lifetime.end.p0(i64 8, ptr %6) #11
  %164 = load i32, ptr %3, align 4
  ret i32 %164
}