; Function Attrs: nounwind uwtable
define internal range(i32 0, 2) i32 @_find_invalid_job_gres_on_node(ptr noundef readonly captures(none) %0, ptr noundef readonly captures(none) %1) #2 {
  %3 = alloca i32, align 4
  %4 = getelementptr inbounds nuw i8, ptr %0, i64 8
  %5 = load ptr, ptr %4, align 8
  call void @llvm.lifetime.start.p0(i64 4, ptr nonnull %3) #28
  %.not = icmp eq ptr %5, null
  br i1 %.not, label %58, label %6

6:                                                ; preds = %2
  %7 = getelementptr inbounds nuw i8, ptr %5, i64 144
  %8 = load ptr, ptr %7, align 8
  %.not50 = icmp eq ptr %8, null
  br i1 %.not50, label %58, label %9

9:                                                ; preds = %6
  %10 = getelementptr inbounds nuw i8, ptr %5, i64 136
  %11 = load i32, ptr %10, align 8
  %12 = getelementptr inbounds nuw i8, ptr %1, i64 16
  %13 = load i32, ptr %12, align 8
  %.not51 = icmp ugt i32 %11, %13
  br i1 %.not51, label %14, label %58

14:                                               ; preds = %9
  %15 = sext i32 %13 to i64
  %16 = getelementptr inbounds ptr, ptr %8, i64 %15
  %17 = load ptr, ptr %16, align 8
  %.not52 = icmp eq ptr %17, null
  br i1 %.not52, label %58, label %18

18:                                               ; preds = %14
  %19 = tail call i64 @bit_size(ptr noundef nonnull %17) #28
  %20 = trunc i64 %19 to i32
  %21 = load i32, ptr %0, align 8
  %22 = and i32 %21, 512
  %.not.i.not = icmp eq i32 %22, 0
  %23 = getelementptr inbounds nuw i8, ptr %0, i64 4
  %storemerge.in = select i1 %.not.i.not, ptr %23, ptr @gpu_plugin_id
  %storemerge = load i32, ptr %storemerge.in, align 4
  store i32 %storemerge, ptr %3, align 4
  %24 = getelementptr inbounds nuw i8, ptr %1, i64 8
  %25 = load ptr, ptr %24, align 8
  %26 = call ptr @list_find_first(ptr noundef %25, ptr noundef nonnull @gres_find_id, ptr noundef nonnull %3) #28
  %.not53 = icmp eq ptr %26, null
  br i1 %.not53, label %.critedge59, label %27

27:                                               ; preds = %18
  %28 = getelementptr inbounds nuw i8, ptr %26, i64 8
  %29 = load ptr, ptr %28, align 8
  %30 = getelementptr inbounds nuw i8, ptr %29, i64 16
  %31 = load i64, ptr %30, align 8
  %32 = trunc i64 %31 to i32
  %33 = load i32, ptr %5, align 8
  %.not54 = icmp eq i32 %33, 0
  br i1 %.not54, label %.critedge59, label %.preheader

.preheader:                                       ; preds = %27
  %34 = getelementptr inbounds nuw i8, ptr %29, i64 136
  %35 = load i16, ptr %34, align 8
  %.not62 = icmp eq i16 %35, 0
  br i1 %.not62, label %.critedge60, label %.lr.ph

.lr.ph:                                           ; preds = %.preheader
  %36 = getelementptr inbounds nuw i8, ptr %29, i64 160
  %37 = load ptr, ptr %36, align 8
  %wide.trip.count = zext i16 %35 to i64
  br label %39

38:                                               ; preds = %39
  %indvars.iv.next = add nuw nsw i64 %indvars.iv, 1
  %exitcond.not = icmp eq i64 %indvars.iv.next, %wide.trip.count
  br i1 %exitcond.not, label %.critedge60, label %39, !llvm.loop !109

39:                                               ; preds = %.lr.ph, %38
  %indvars.iv = phi i64 [ 0, %.lr.ph ], [ %indvars.iv.next, %38 ]
  %40 = getelementptr inbounds nuw i32, ptr %37, i64 %indvars.iv
  %41 = load i32, ptr %40, align 4
  %42 = icmp eq i32 %41, %33
  br i1 %42, label %.critedge59, label %38

.critedge59:                                      ; preds = %39, %27, %18
  %.041 = phi i32 [ 0, %18 ], [ %32, %27 ], [ %32, %39 ]
  %.not55 = icmp eq i32 %.041, %20
  br i1 %.not55, label %58, label %43

43:                                               ; preds = %.critedge59
  %44 = load i32, ptr %1, align 8
  %45 = getelementptr inbounds nuw i8, ptr %0, i64 16
  %46 = load ptr, ptr %45, align 8
  %47 = getelementptr inbounds nuw i8, ptr %1, i64 24
  %48 = load ptr, ptr %47, align 8
  %49 = call i32 (ptr, ...) @error(ptr noundef nonnull @.str.285, ptr noundef nonnull @__func__._find_invalid_job_gres_on_node, i32 noundef %44, ptr noundef %46, ptr noundef %48, i32 noundef %20, i32 noundef %.041) #28
  br label %58

.critedge60:                                      ; preds = %38, %.preheader
  %50 = load i32, ptr %1, align 8
  %51 = getelementptr inbounds nuw i8, ptr %0, i64 16
  %52 = load ptr, ptr %51, align 8
  %53 = getelementptr inbounds nuw i8, ptr %5, i64 8
  %54 = load ptr, ptr %53, align 8
  %55 = getelementptr inbounds nuw i8, ptr %1, i64 24
  %56 = load ptr, ptr %55, align 8
  %57 = call i32 (ptr, ...) @error(ptr noundef nonnull @.str.284, ptr noundef nonnull @__func__._find_invalid_job_gres_on_node, i32 noundef %50, ptr noundef %52, ptr noundef %54, ptr noundef %56) #28
  br label %58

58:                                               ; preds = %.critedge60, %.critedge59, %2, %6, %9, %14, %43
  %.039 = phi i32 [ 1, %43 ], [ 0, %14 ], [ 0, %9 ], [ 0, %6 ], [ 0, %2 ], [ 0, %.critedge59 ], [ 1, %.critedge60 ]
  call void @llvm.lifetime.end.p0(i64 4, ptr nonnull %3) #28
  ret i32 %.039
}